; Function Attrs: mustprogress uwtable
define internal noundef i64 @_ZNK6Assimp3IFC12_GLOBAL__N_112TrimmedCurve19EstimateSampleCountEdd(ptr noundef nonnull readonly align 8 captures(none) dereferenceable(72) %0, double noundef %1, double noundef %2) unnamed_addr #1 align 2 {
  %4 = getelementptr inbounds nuw i8, ptr %0, i64 56
  %5 = load ptr, ptr %4, align 8
  %6 = getelementptr inbounds nuw i8, ptr %0, i64 48
  %7 = load i8, ptr %6, align 8, !range !9, !noundef !39
  %8 = trunc nuw i8 %7 to i1
  %9 = getelementptr inbounds nuw i8, ptr %0, i64 24
  %10 = load double, ptr %9, align 8
  %11 = fadd double %1, %10
  %12 = getelementptr inbounds nuw i8, ptr %0, i64 32
  %13 = load double, ptr %12, align 8
  %14 = fsub double %13, %1
  %15 = select i1 %8, double %11, double %14
  %16 = fadd double %2, %10
  %17 = fsub double %13, %2
  %18 = select i1 %8, double %16, double %17
  %19 = load ptr, ptr %5, align 8
  %20 = getelementptr inbounds nuw i8, ptr %19, i64 48
  %21 = load ptr, ptr %20, align 8
  %22 = tail call noundef i64 %21(ptr noundef nonnull align 8 dereferenceable(24) %5, double noundef %15, double noundef %18)
  ret i64 %22
}